target datalayout = "e-m:e-p270:32:32-p271:32:32-p272:64:64-i64:64-i128:128-f80:128-n8:16:32:64-S128"
target triple = "x86_64-pc-linux-gnu"

%struct._scsi_task_data = type { i32, ptr, ptr }
%struct._itl_nexus_t = type { i8, ptr }

@hf_scsi_blockdescs_no_of_blocks64 = internal global i32 0, align 4
@hf_scsi_blockdescs_density_code = internal global i32 0, align 4
@hf_scsi_blockdescs_block_length32 = internal global i32 0, align 4
@hf_scsi_blockdescs_no_of_blocks32 = internal global i32 0, align 4
@hf_scsi_blockdescs_block_length24 = internal global i32 0, align 4
@hf_scsi_blockdescs_no_of_blocks24 = internal global i32 0, align 4

; Function Attrs: nounwind uwtable
define internal void @dissect_scsi_blockdescs(ptr noundef %0, ptr noundef %1, ptr noundef %2, ptr noundef %3, i32 noundef %4) #0 {
  %6 = alloca ptr, align 8
  %7 = alloca ptr, align 8
  %8 = alloca ptr, align 8
  %9 = alloca ptr, align 8
  %10 = alloca i32, align 4
  %11 = alloca i32, align 4
  store ptr %0, ptr %6, align 8
  store ptr %1, ptr %7, align 8
  store ptr %2, ptr %8, align 8
  store ptr %3, ptr %9, align 8
  store i32 %4, ptr %10, align 4
  store i32 0, ptr %11, align 4
  %12 = load ptr, ptr %9, align 8
  %13 = icmp ne ptr %12, null
  br i1 %13, label %15, label %14

14:                                               ; preds = %5
  br label %148

15:                                               ; preds = %5
  br label %16

16:                                               ; preds = %147, %15
  %17 = load ptr, ptr %6, align 8
  %18 = load i32, ptr %11, align 4
  %19 = call i32 @tvb_reported_length_remaining(ptr noundef %17, i32 noundef %18)
  %20 = icmp sgt i32 %19, 0
  br i1 %20, label %21, label %148

21:                                               ; preds = %16
  %22 = load i32, ptr %10, align 4
  %23 = icmp ne i32 %22, 0
  br i1 %23, label %24, label %66

24:                                               ; preds = %21
  %25 = load ptr, ptr %6, align 8
  %26 = load i32, ptr %11, align 4
  %27 = call i32 @tvb_reported_length_remaining(ptr noundef %25, i32 noundef %26)
  %28 = icmp slt i32 %27, 8
  br i1 %28, label %29, label %30

29:                                               ; preds = %24
  br label %148

30:                                               ; preds = %24
  %31 = load ptr, ptr %8, align 8
  %32 = load i32, ptr @hf_scsi_blockdescs_no_of_blocks64, align 4
  %33 = load ptr, ptr %6, align 8
  %34 = load i32, ptr %11, align 4
  %35 = call ptr @proto_tree_add_item(ptr noundef %31, i32 noundef %32, ptr noundef %33, i32 noundef %34, i32 noundef 8, i32 noundef 0)
  %36 = load i32, ptr %11, align 4
  %37 = add i32 %36, 8
  store i32 %37, ptr %11, align 4
  %38 = load ptr, ptr %6, align 8
  %39 = load i32, ptr %11, align 4
  %40 = call i32 @tvb_reported_length_remaining(ptr noundef %38, i32 noundef %39)
  %41 = icmp slt i32 %40, 1
  br i1 %41, label %42, label %43

42:                                               ; preds = %30
  br label %148

43:                                               ; preds = %30
  %44 = load ptr, ptr %8, align 8
  %45 = load i32, ptr @hf_scsi_blockdescs_density_code, align 4
  %46 = load ptr, ptr %6, align 8
  %47 = load i32, ptr %11, align 4
  %48 = call ptr @proto_tree_add_item(ptr noundef %44, i32 noundef %45, ptr noundef %46, i32 noundef %47, i32 noundef 1, i32 noundef 0)
  %49 = load i32, ptr %11, align 4
  %50 = add i32 %49, 1
  store i32 %50, ptr %11, align 4
  %51 = load i32, ptr %11, align 4
  %52 = add i32 %51, 3
  store i32 %52, ptr %11, align 4
  %53 = load ptr, ptr %6, align 8
  %54 = load i32, ptr %11, align 4
  %55 = call i32 @tvb_reported_length_remaining(ptr noundef %53, i32 noundef %54)
  %56 = icmp slt i32 %55, 4
  br i1 %56, label %57, label %58

57:                                               ; preds = %43
  br label %148

58:                                               ; preds = %43
  %59 = load ptr, ptr %8, align 8
  %60 = load i32, ptr @hf_scsi_blockdescs_block_length32, align 4
  %61 = load ptr, ptr %6, align 8
  %62 = load i32, ptr %11, align 4
  %63 = call ptr @proto_tree_add_item(ptr noundef %59, i32 noundef %60, ptr noundef %61, i32 noundef %62, i32 noundef 4, i32 noundef 0)
  %64 = load i32, ptr %11, align 4
  %65 = add i32 %64, 4
  store i32 %65, ptr %11, align 4
  br label %147

66:                                               ; preds = %21
  %67 = load ptr, ptr %9, align 8
  %68 = getelementptr inbounds %struct._scsi_task_data, ptr %67, i32 0, i32 2
  %69 = load ptr, ptr %68, align 8
  %70 = getelementptr inbounds %struct._itl_nexus_t, ptr %69, i32 0, i32 0
  %71 = load i8, ptr %70, align 8
  %72 = zext i8 %71 to i32
  %73 = and i32 %72, 127
  %74 = icmp eq i32 %73, 0
  br i1 %74, label %75, label %104

75:                                               ; preds = %66
  %76 = load ptr, ptr %6, align 8
  %77 = load i32, ptr %11, align 4
  %78 = call i32 @tvb_reported_length_remaining(ptr noundef %76, i32 noundef %77)
  %79 = icmp slt i32 %78, 4
  br i1 %79, label %80, label %81

80:                                               ; preds = %75
  br label %148

81:                                               ; preds = %75
  %82 = load ptr, ptr %8, align 8
  %83 = load i32, ptr @hf_scsi_blockdescs_no_of_blocks32, align 4
  %84 = load ptr, ptr %6, align 8
  %85 = load i32, ptr %11, align 4
  %86 = call ptr @proto_tree_add_item(ptr noundef %82, i32 noundef %83, ptr noundef %84, i32 noundef %85, i32 noundef 4, i32 noundef 0)
  %87 = load i32, ptr %11, align 4
  %88 = add i32 %87, 4
  store i32 %88, ptr %11, align 4
  %89 = load i32, ptr %11, align 4
  %90 = add i32 %89, 1
  store i32 %90, ptr %11, align 4
  %91 = load ptr, ptr %6, align 8
  %92 = load i32, ptr %11, align 4
  %93 = call i32 @tvb_reported_length_remaining(ptr noundef %91, i32 noundef %92)
  %94 = icmp slt i32 %93, 3
  br i1 %94, label %95, label %96

95:                                               ; preds = %81
  br label %148

96:                                               ; preds = %81
  %97 = load ptr, ptr %8, align 8
  %98 = load i32, ptr @hf_scsi_blockdescs_block_length24, align 4
  %99 = load ptr, ptr %6, align 8
  %100 = load i32, ptr %11, align 4
  %101 = call ptr @proto_tree_add_item(ptr noundef %97, i32 noundef %98, ptr noundef %99, i32 noundef %100, i32 noundef 3, i32 noundef 0)
  %102 = load i32, ptr %11, align 4
  %103 = add i32 %102, 3
  store i32 %103, ptr %11, align 4
  br label %146

104:                                              ; preds = %66
  %105 = load ptr, ptr %6, align 8
  %106 = load i32, ptr %11, align 4
  %107 = call i32 @tvb_reported_length_remaining(ptr noundef %105, i32 noundef %106)
  %108 = icmp slt i32 %107, 1
  br i1 %108, label %109, label %110

109:                                              ; preds = %104
  br label %148

110:                                              ; preds = %104
  %111 = load ptr, ptr %8, align 8
  %112 = load i32, ptr @hf_scsi_blockdescs_density_code, align 4
  %113 = load ptr, ptr %6, align 8
  %114 = load i32, ptr %11, align 4
  %115 = call ptr @proto_tree_add_item(ptr noundef %111, i32 noundef %112, ptr noundef %113, i32 noundef %114, i32 noundef 1, i32 noundef 0)
  %116 = load i32, ptr %11, align 4
  %117 = add i32 %116, 1
  store i32 %117, ptr %11, align 4
  %118 = load ptr, ptr %6, align 8
  %119 = load i32, ptr %11, align 4
  %120 = call i32 @tvb_reported_length_remaining(ptr noundef %118, i32 noundef %119)
  %121 = icmp slt i32 %120, 3
  br i1 %121, label %122, label %123

122:                                              ; preds = %110
  br label %148

123:                                              ; preds = %110
  %124 = load ptr, ptr %8, align 8
  %125 = load i32, ptr @hf_scsi_blockdescs_no_of_blocks24, align 4
  %126 = load ptr, ptr %6, align 8
  %127 = load i32, ptr %11, align 4
  %128 = call ptr @proto_tree_add_item(ptr noundef %124, i32 noundef %125, ptr noundef %126, i32 noundef %127, i32 noundef 3, i32 noundef 0)
  %129 = load i32, ptr %11, align 4
  %130 = add i32 %129, 3
  store i32 %130, ptr %11, align 4
  %131 = load i32, ptr %11, align 4
  %132 = add i32 %131, 1
  store i32 %132, ptr %11, align 4
  %133 = load ptr, ptr %6, align 8
  %134 = load i32, ptr %11, align 4
  %135 = call i32 @tvb_reported_length_remaining(ptr noundef %133, i32 noundef %134)
  %136 = icmp slt i32 %135, 3
  br i1 %136, label %137, label %138

137:                                              ; preds = %123
  br label %148

138:                                              ; preds = %123
  %139 = load ptr, ptr %8, align 8
  %140 = load i32, ptr @hf_scsi_blockdescs_block_length24, align 4
  %141 = load ptr, ptr %6, align 8
  %142 = load i32, ptr %11, align 4
  %143 = call ptr @proto_tree_add_item(ptr noundef %139, i32 noundef %140, ptr noundef %141, i32 noundef %142, i32 noundef 3, i32 noundef 0)
  %144 = load i32, ptr %11, align 4
  %145 = add i32 %144, 3
  store i32 %145, ptr %11, align 4
  br label %146

146:                                              ; preds = %138, %96
  br label %147

147:                                              ; preds = %146, %58
  br label %16, !llvm.loop !15

148:                                              ; preds = %137, %122, %109, %95, %80, %57, %42, %29, %16, %14
  ret void
}