; Function Attrs: nounwind uwtable
define internal fastcc void @dissect_scsi_blockdescs(ptr noundef %0, ptr noundef nonnull %1, ptr noundef readonly %2, i32 noundef range(i32 0, 2) %3) unnamed_addr #0 {
  %.not = icmp eq ptr %2, null
  br i1 %.not, label %.loopexit, label %.preheader

.preheader:                                       ; preds = %4
  %5 = tail call i32 @tvb_reported_length_remaining(ptr noundef %0, i32 noundef 0) #10
  %6 = icmp sgt i32 %5, 0
  br i1 %6, label %.lr.ph, label %.loopexit

.lr.ph:                                           ; preds = %.preheader
  %.not55 = icmp eq i32 %3, 0
  %7 = getelementptr inbounds nuw i8, ptr %2, i64 16
  br i1 %.not55, label %.lr.ph.split.us, label %.lr.ph.split

.lr.ph.split.us:                                  ; preds = %.lr.ph, %35
  %.01.us = phi i32 [ %.1.us, %35 ], [ 0, %.lr.ph ]
  %8 = load ptr, ptr %7, align 8
  %9 = load i8, ptr %8, align 8
  %10 = and i8 %9, 127
  %11 = icmp eq i8 %10, 0
  %12 = tail call i32 @tvb_reported_length_remaining(ptr noundef %0, i32 noundef %.01.us) #10
  br i1 %11, label %27, label %13

13:                                               ; preds = %.lr.ph.split.us
  %14 = icmp slt i32 %12, 1
  br i1 %14, label %.loopexit, label %15

15:                                               ; preds = %13
  %16 = load i32, ptr @hf_scsi_blockdescs_density_code, align 4
  %17 = tail call ptr @proto_tree_add_item(ptr noundef nonnull %1, i32 noundef %16, ptr noundef %0, i32 noundef %.01.us, i32 noundef 1, i32 noundef 0) #10
  %18 = or disjoint i32 %.01.us, 1
  %19 = tail call i32 @tvb_reported_length_remaining(ptr noundef %0, i32 noundef %18) #10
  %20 = icmp slt i32 %19, 3
  br i1 %20, label %.loopexit, label %21

21:                                               ; preds = %15
  %22 = load i32, ptr @hf_scsi_blockdescs_no_of_blocks24, align 4
  %23 = tail call ptr @proto_tree_add_item(ptr noundef nonnull %1, i32 noundef %22, ptr noundef %0, i32 noundef %18, i32 noundef 3, i32 noundef 0) #10
  %24 = or disjoint i32 %.01.us, 5
  %25 = tail call i32 @tvb_reported_length_remaining(ptr noundef %0, i32 noundef %24) #10
  %26 = icmp slt i32 %25, 3
  br i1 %26, label %.loopexit, label %35

27:                                               ; preds = %.lr.ph.split.us
  %28 = icmp slt i32 %12, 4
  br i1 %28, label %.loopexit, label %29

29:                                               ; preds = %27
  %30 = load i32, ptr @hf_scsi_blockdescs_no_of_blocks32, align 4
  %31 = tail call ptr @proto_tree_add_item(ptr noundef nonnull %1, i32 noundef %30, ptr noundef %0, i32 noundef %.01.us, i32 noundef 4, i32 noundef 0) #10
  %32 = or disjoint i32 %.01.us, 5
  %33 = tail call i32 @tvb_reported_length_remaining(ptr noundef %0, i32 noundef %32) #10
  %34 = icmp slt i32 %33, 3
  br i1 %34, label %.loopexit, label %35

35:                                               ; preds = %29, %21
  %.sink12 = phi i32 [ %24, %21 ], [ %32, %29 ]
  %36 = load i32, ptr @hf_scsi_blockdescs_block_length24, align 4
  %37 = tail call ptr @proto_tree_add_item(ptr noundef nonnull %1, i32 noundef %36, ptr noundef %0, i32 noundef %.sink12, i32 noundef 3, i32 noundef 0) #10
  %.1.us = add i32 %.01.us, 8
  %38 = tail call i32 @tvb_reported_length_remaining(ptr noundef %0, i32 noundef %.1.us) #10
  %39 = icmp sgt i32 %38, 0
  br i1 %39, label %.lr.ph.split.us, label %.loopexit, !llvm.loop !14

.lr.ph.split:                                     ; preds = %.lr.ph, %54
  %.01 = phi i32 [ %57, %54 ], [ 0, %.lr.ph ]
  %40 = tail call i32 @tvb_reported_length_remaining(ptr noundef %0, i32 noundef %.01) #10
  %41 = icmp slt i32 %40, 8
  br i1 %41, label %.loopexit, label %42

42:                                               ; preds = %.lr.ph.split
  %43 = load i32, ptr @hf_scsi_blockdescs_no_of_blocks64, align 4
  %44 = tail call ptr @proto_tree_add_item(ptr noundef nonnull %1, i32 noundef %43, ptr noundef %0, i32 noundef %.01, i32 noundef 8, i32 noundef 0) #10
  %45 = or disjoint i32 %.01, 8
  %46 = tail call i32 @tvb_reported_length_remaining(ptr noundef %0, i32 noundef %45) #10
  %47 = icmp slt i32 %46, 1
  br i1 %47, label %.loopexit, label %48

48:                                               ; preds = %42
  %49 = load i32, ptr @hf_scsi_blockdescs_density_code, align 4
  %50 = tail call ptr @proto_tree_add_item(ptr noundef nonnull %1, i32 noundef %49, ptr noundef %0, i32 noundef %45, i32 noundef 1, i32 noundef 0) #10
  %51 = or disjoint i32 %.01, 12
  %52 = tail call i32 @tvb_reported_length_remaining(ptr noundef %0, i32 noundef %51) #10
  %53 = icmp slt i32 %52, 4
  br i1 %53, label %.loopexit, label %54

54:                                               ; preds = %48
  %55 = load i32, ptr @hf_scsi_blockdescs_block_length32, align 4
  %56 = tail call ptr @proto_tree_add_item(ptr noundef nonnull %1, i32 noundef %55, ptr noundef %0, i32 noundef %51, i32 noundef 4, i32 noundef 0) #10
  %57 = add i32 %.01, 16
  %58 = tail call i32 @tvb_reported_length_remaining(ptr noundef %0, i32 noundef %57) #10
  %59 = icmp sgt i32 %58, 0
  br i1 %59, label %.lr.ph.split, label %.loopexit, !llvm.loop !14

.loopexit:                                        ; preds = %54, %.lr.ph.split, %42, %48, %35, %27, %29, %13, %15, %21, %.preheader, %4
  ret void
}